; Function Attrs: mustprogress uwtable
define dso_local void @_ZNK5vcpkg10VcpkgPaths11package_dirERKNS_11PackageSpecE(ptr dead_on_unwind noalias writable sret(%"struct.vcpkg::Path") align 8 %0, ptr noundef nonnull readonly align 8 captures(none) dereferenceable(440) %1, ptr noundef nonnull align 8 dereferenceable(40) %2) local_unnamed_addr #0 align 2 personality ptr @__gxx_personality_v0 {
  %4 = alloca %"struct.vcpkg::StringView", align 8
  %5 = alloca %"class.std::__cxx11::basic_string", align 8
  %6 = tail call noundef nonnull align 8 dereferenceable(32) ptr @_ZNK5vcpkg10VcpkgPaths8packagesEv(ptr noundef nonnull align 8 dereferenceable(440) %1)
  call void @llvm.lifetime.start.p0(i64 32, ptr nonnull %5) #28
  call void @_ZNK5vcpkg11PackageSpec3dirB5cxx11Ev(ptr dead_on_unwind nonnull writable sret(%"class.std::__cxx11::basic_string") align 8 %5, ptr noundef nonnull align 8 dereferenceable(40) %2)
  call void @_ZN5vcpkg10StringViewC1ERKNSt7__cxx1112basic_stringIcSt11char_traitsIcESaIcEEE(ptr noundef nonnull align 8 dereferenceable(16) %4, ptr noundef nonnull align 8 dereferenceable(32) %5) #28
  %7 = load ptr, ptr %4, align 8
  %8 = getelementptr inbounds nuw i8, ptr %4, i64 8
  %9 = load i64, ptr %8, align 8
  invoke void @_ZNKR5vcpkg4PathdvENS_10StringViewE(ptr dead_on_unwind writable sret(%"struct.vcpkg::Path") align 8 %0, ptr noundef nonnull align 8 dereferenceable(32) %6, ptr %7, i64 %9)
          to label %10 unwind label %19

10:                                               ; preds = %3
  %11 = load ptr, ptr %5, align 8, !tbaa !7
  %12 = getelementptr inbounds nuw i8, ptr %5, i64 16
  %13 = icmp eq ptr %11, %12
  br i1 %13, label %_ZNKSt7__cxx1112basic_stringIcSt11char_traitsIcESaIcEE11_M_is_localEv.exit.thread.i.i, label %_ZNKSt7__cxx1112basic_stringIcSt11char_traitsIcESaIcEE11_M_is_localEv.exit.i.i

_ZNKSt7__cxx1112basic_stringIcSt11char_traitsIcESaIcEE11_M_is_localEv.exit.thread.i.i: ; preds = %10
  %14 = getelementptr inbounds nuw i8, ptr %5, i64 8
  %15 = load i64, ptr %14, align 8, !tbaa !15
  %16 = icmp ult i64 %15, 16
  call void @llvm.assume(i1 %16)
  br label %_ZNSt7__cxx1112basic_stringIcSt11char_traitsIcESaIcEED2Ev.exit

_ZNKSt7__cxx1112basic_stringIcSt11char_traitsIcESaIcEE11_M_is_localEv.exit.i.i: ; preds = %10
  %17 = load i64, ptr %12, align 8, !tbaa !16
  %18 = add i64 %17, 1
  call void @_ZdlPvm(ptr noundef %11, i64 noundef %18) #29
  br label %_ZNSt7__cxx1112basic_stringIcSt11char_traitsIcESaIcEED2Ev.exit

_ZNSt7__cxx1112basic_stringIcSt11char_traitsIcESaIcEED2Ev.exit: ; preds = %_ZNKSt7__cxx1112basic_stringIcSt11char_traitsIcESaIcEE11_M_is_localEv.exit.thread.i.i, %_ZNKSt7__cxx1112basic_stringIcSt11char_traitsIcESaIcEE11_M_is_localEv.exit.i.i
  call void @llvm.lifetime.end.p0(i64 32, ptr nonnull %5) #28
  ret void

19:                                               ; preds = %3
  %20 = landingpad { ptr, i32 }
          cleanup
  %21 = load ptr, ptr %5, align 8, !tbaa !7
  %22 = getelementptr inbounds nuw i8, ptr %5, i64 16
  %23 = icmp eq ptr %21, %22
  br i1 %23, label %_ZNKSt7__cxx1112basic_stringIcSt11char_traitsIcESaIcEE11_M_is_localEv.exit.thread.i.i4, label %_ZNKSt7__cxx1112basic_stringIcSt11char_traitsIcESaIcEE11_M_is_localEv.exit.i.i3

_ZNKSt7__cxx1112basic_stringIcSt11char_traitsIcESaIcEE11_M_is_localEv.exit.thread.i.i4: ; preds = %19
  %24 = getelementptr inbounds nuw i8, ptr %5, i64 8
  %25 = load i64, ptr %24, align 8, !tbaa !15
  %26 = icmp ult i64 %25, 16
  call void @llvm.assume(i1 %26)
  br label %_ZNSt7__cxx1112basic_stringIcSt11char_traitsIcESaIcEED2Ev.exit5

_ZNKSt7__cxx1112basic_stringIcSt11char_traitsIcESaIcEE11_M_is_localEv.exit.i.i3: ; preds = %19
  %27 = load i64, ptr %22, align 8, !tbaa !16
  %28 = add i64 %27, 1
  call void @_ZdlPvm(ptr noundef %21, i64 noundef %28) #29
  br label %_ZNSt7__cxx1112basic_stringIcSt11char_traitsIcESaIcEED2Ev.exit5

_ZNSt7__cxx1112basic_stringIcSt11char_traitsIcESaIcEED2Ev.exit5: ; preds = %_ZNKSt7__cxx1112basic_stringIcSt11char_traitsIcESaIcEE11_M_is_localEv.exit.thread.i.i4, %_ZNKSt7__cxx1112basic_stringIcSt11char_traitsIcESaIcEE11_M_is_localEv.exit.i.i3
  call void @llvm.lifetime.end.p0(i64 32, ptr nonnull %5) #28
  resume { ptr, i32 } %20
}